target datalayout = "e-m:e-p270:32:32-p271:32:32-p272:64:64-i64:64-i128:128-f80:128-n8:16:32:64-S128"
target triple = "x86_64-unknown-linux-gnu"

%struct.Object = type { ptr, ptr, ptr, i32, ptr }
%struct.ResettableState = type { i32, i8, i8 }
%struct.QTailQLink = type { ptr, ptr }
%struct.VirtioBusClass = type { %struct.BusClass, ptr, ptr, ptr, ptr, ptr, ptr, ptr, ptr, ptr, ptr, ptr, ptr, ptr, ptr, ptr, ptr, ptr, ptr, ptr, ptr, i8, ptr, ptr }
%struct.BusClass = type { %struct.ObjectClass, ptr, ptr, ptr, ptr, ptr, ptr, ptr, i32, i32 }
%struct.ObjectClass = type { ptr, ptr, [4 x ptr], [4 x ptr], ptr, ptr }
%struct.BusState = type { %struct.Object, ptr, ptr, ptr, i32, i8, i8, i32, %union.BusChildHead, %struct.BusStateEntry, %struct.ResettableState }
%union.BusChildHead = type { %struct.QTailQLink }
%struct.BusStateEntry = type { ptr, ptr }

@.str.96 = private unnamed_addr constant [7 x i8] c"device\00", align 1
@.str.97 = private unnamed_addr constant [101 x i8] c"/home/dtcxzyw/WorkSpace/Projects/compilers/llvm-opt-benchmark/bench/qemu/qemu/include/hw/qdev-core.h\00", align 1
@__func__.DEVICE = private unnamed_addr constant [7 x i8] c"DEVICE\00", align 1
@.str.98 = private unnamed_addr constant [11 x i8] c"virtio-bus\00", align 1
@.str.99 = private unnamed_addr constant [109 x i8] c"/home/dtcxzyw/WorkSpace/Projects/compilers/llvm-opt-benchmark/bench/qemu/qemu/include/hw/virtio/virtio-bus.h\00", align 1
@__func__.VIRTIO_BUS_GET_CLASS = private unnamed_addr constant [21 x i8] c"VIRTIO_BUS_GET_CLASS\00", align 1

; Function Attrs: nounwind sspstrong uwtable
define internal ptr @VIRTIO_BUS_GET_CLASS(ptr noundef %obj) #0 {
entry:
  %obj.addr = alloca ptr, align 8
  store ptr %obj, ptr %obj.addr, align 8
  %0 = load ptr, ptr %obj.addr, align 8
  %call = call ptr @object_get_class(ptr noundef %0)
  %call1 = call ptr @object_class_dynamic_cast_assert(ptr noundef %call, ptr noundef @.str.98, ptr noundef @.str.99, i32 noundef 36, ptr noundef @__func__.VIRTIO_BUS_GET_CLASS)
  ret ptr %call1
}

; Function Attrs: nounwind sspstrong uwtable
define internal ptr @DEVICE(ptr noundef %obj) #0 {
entry:
  %obj.addr = alloca ptr, align 8
  store ptr %obj, ptr %obj.addr, align 8
  %0 = load ptr, ptr %obj.addr, align 8
  %call = call ptr @object_dynamic_cast_assert(ptr noundef %0, ptr noundef @.str.96, ptr noundef @.str.97, i32 noundef 77, ptr noundef @__func__.DEVICE)
  ret ptr %call
}

; Function Attrs: nounwind sspstrong uwtable
define dso_local i32 @virtio_queue_set_host_notifier_mr(ptr noundef %vdev, i32 noundef %n, ptr noundef %mr, i1 noundef zeroext %assign) #0 {
entry:
  %retval = alloca i32, align 4
  %vdev.addr = alloca ptr, align 8
  %n.addr = alloca i32, align 4
  %mr.addr = alloca ptr, align 8
  %assign.addr = alloca i8, align 1
  %qbus = alloca ptr, align 8
  %k = alloca ptr, align 8
  store ptr %vdev, ptr %vdev.addr, align 8
  store i32 %n, ptr %n.addr, align 4
  store ptr %mr, ptr %mr.addr, align 8
  %frombool = zext i1 %assign to i8
  store i8 %frombool, ptr %assign.addr, align 1
  %0 = load ptr, ptr %vdev.addr, align 8
  %call = call ptr @DEVICE(ptr noundef %0)
  %call1 = call ptr @qdev_get_parent_bus(ptr noundef %call)
  store ptr %call1, ptr %qbus, align 8
  %1 = load ptr, ptr %qbus, align 8
  %call2 = call ptr @VIRTIO_BUS_GET_CLASS(ptr noundef %1)
  store ptr %call2, ptr %k, align 8
  %2 = load ptr, ptr %k, align 8
  %set_host_notifier_mr = getelementptr inbounds %struct.VirtioBusClass, ptr %2, i32 0, i32 12
  %3 = load ptr, ptr %set_host_notifier_mr, align 8
  %tobool = icmp ne ptr %3, null
  br i1 %tobool, label %if.then, label %if.end

if.then:                                          ; preds = %entry
  %4 = load ptr, ptr %k, align 8
  %set_host_notifier_mr3 = getelementptr inbounds %struct.VirtioBusClass, ptr %4, i32 0, i32 12
  %5 = load ptr, ptr %set_host_notifier_mr3, align 8
  %6 = load ptr, ptr %qbus, align 8
  %parent = getelementptr inbounds %struct.BusState, ptr %6, i32 0, i32 1
  %7 = load ptr, ptr %parent, align 8
  %8 = load i32, ptr %n.addr, align 4
  %9 = load ptr, ptr %mr.addr, align 8
  %10 = load i8, ptr %assign.addr, align 1
  %tobool4 = trunc i8 %10 to i1
  %call5 = call i32 %5(ptr noundef %7, i32 noundef %8, ptr noundef %9, i1 noundef zeroext %tobool4)
  store i32 %call5, ptr %retval, align 4
  br label %return

if.end:                                           ; preds = %entry
  store i32 -1, ptr %retval, align 4
  br label %return

return:                                           ; preds = %if.end, %if.then
  %11 = load i32, ptr %retval, align 4
  ret i32 %11
}