; Function Attrs: nounwind sspstrong uwtable
define dso_local i32 @virtio_queue_set_host_notifier_mr(ptr noundef %vdev, i32 noundef %n, ptr noundef %mr, i1 noundef zeroext %assign) local_unnamed_addr #0 {
entry:
  %call.i = tail call ptr @object_dynamic_cast_assert(ptr noundef %vdev, ptr noundef nonnull @.str.96, ptr noundef nonnull @.str.97, i32 noundef 77, ptr noundef nonnull @__func__.DEVICE) #23
  %call1 = tail call ptr @qdev_get_parent_bus(ptr noundef %call.i) #23
  %call.i3 = tail call ptr @object_get_class(ptr noundef %call1) #23
  %call1.i = tail call ptr @object_class_dynamic_cast_assert(ptr noundef %call.i3, ptr noundef nonnull @.str.98, ptr noundef nonnull @.str.99, i32 noundef 36, ptr noundef nonnull @__func__.VIRTIO_BUS_GET_CLASS) #23
  %set_host_notifier_mr = getelementptr inbounds nuw i8, ptr %call1.i, i64 248
  %0 = load ptr, ptr %set_host_notifier_mr, align 8
  %tobool.not = icmp eq ptr %0, null
  br i1 %tobool.not, label %return, label %if.then

if.then:                                          ; preds = %entry
  %parent = getelementptr inbounds nuw i8, ptr %call1, i64 40
  %1 = load ptr, ptr %parent, align 8
  %call5 = tail call i32 %0(ptr noundef %1, i32 noundef %n, ptr noundef %mr, i1 noundef zeroext %assign) #23
  br label %return

return:                                           ; preds = %entry, %if.then
  %retval.0 = phi i32 [ %call5, %if.then ], [ -1, %entry ]
  ret i32 %retval.0
}